; Function Attrs: mustprogress uwtable
define void @_ZN2cv3dnn14dnn4_v202412233Net19setPreferableTargetEi(ptr noundef nonnull readonly align 8 captures(none) dereferenceable(16) %0, i32 noundef %1) local_unnamed_addr #3 align 2 personality ptr @__gxx_personality_v0 {
  %3 = alloca %"class.cv::utils::trace::details::Region", align 8
  %4 = alloca %"class.std::__cxx11::basic_string", align 8
  %5 = alloca %"class.std::allocator", align 1
  call void @llvm.lifetime.start.p0(i64 16, ptr nonnull %3) #21
  call void @_ZN2cv5utils5trace7details6RegionC1ERKNS3_21LocationStaticStorageE(ptr noundef nonnull align 8 dereferenceable(12) %3, ptr noundef nonnull align 8 dereferenceable(32) @_ZZN2cv3dnn14dnn4_v202412233Net19setPreferableTargetEiE25__cv_trace_location_fn155)
  %6 = load ptr, ptr %3, align 8, !tbaa !24
  %.not = icmp eq ptr %6, null
  br i1 %.not, label %10, label %7

7:                                                ; preds = %2
  invoke void @_ZN2cv5utils5trace7details8traceArgERKNS2_8TraceArgEi(ptr noundef nonnull align 8 dereferenceable(24) @_ZZN2cv3dnn14dnn4_v202412233Net19setPreferableTargetEiE26__cv_trace_arg_targetId156, i32 noundef %1)
          to label %10 unwind label %8

8:                                                ; preds = %25, %7
  %9 = landingpad { ptr, i32 }
          cleanup
  br label %36

10:                                               ; preds = %2, %7
  %11 = load ptr, ptr %0, align 8, !tbaa !17
  %.not9 = icmp eq ptr %11, null
  br i1 %.not9, label %12, label %25

12:                                               ; preds = %10
  call void @llvm.lifetime.start.p0(i64 32, ptr nonnull %4) #21
  call void @llvm.lifetime.start.p0(i64 1, ptr nonnull %5) #21
  invoke void @_ZNSt7__cxx1112basic_stringIcSt11char_traitsIcESaIcEEC2EPKcRKS3_(ptr noundef nonnull align 8 dereferenceable(32) %4, ptr noundef nonnull @.str.2, ptr noundef nonnull align 1 dereferenceable(1) %5)
          to label %13 unwind label %15

13:                                               ; preds = %12
  invoke void @_ZN2cv5errorEiRKNSt7__cxx1112basic_stringIcSt11char_traitsIcESaIcEEEPKcS9_i(i32 noundef -215, ptr noundef nonnull align 8 dereferenceable(32) %4, ptr noundef nonnull @__func__._ZN2cv3dnn14dnn4_v202412233Net19setPreferableTargetEi, ptr noundef nonnull @.str.1, i32 noundef 157) #22
          to label %14 unwind label %17

14:                                               ; preds = %13
  unreachable

15:                                               ; preds = %12
  %16 = landingpad { ptr, i32 }
          cleanup
  br label %_ZNSt7__cxx1112basic_stringIcSt11char_traitsIcESaIcEED2Ev.exit

17:                                               ; preds = %13
  %18 = landingpad { ptr, i32 }
          cleanup
  %19 = load ptr, ptr %4, align 8, !tbaa !27
  %20 = getelementptr inbounds nuw i8, ptr %4, i64 16
  %21 = icmp eq ptr %19, %20
  br i1 %21, label %_ZNKSt7__cxx1112basic_stringIcSt11char_traitsIcESaIcEE11_M_is_localEv.exit.thread.i.i, label %_ZNKSt7__cxx1112basic_stringIcSt11char_traitsIcESaIcEE11_M_is_localEv.exit.i.i

_ZNKSt7__cxx1112basic_stringIcSt11char_traitsIcESaIcEE11_M_is_localEv.exit.thread.i.i: ; preds = %17
  %22 = getelementptr inbounds nuw i8, ptr %4, i64 8
  %23 = load i64, ptr %22, align 8, !tbaa !32
  %24 = icmp ult i64 %23, 16
  call void @llvm.assume(i1 %24)
  br label %_ZNSt7__cxx1112basic_stringIcSt11char_traitsIcESaIcEED2Ev.exit

_ZNKSt7__cxx1112basic_stringIcSt11char_traitsIcESaIcEE11_M_is_localEv.exit.i.i: ; preds = %17
  call void @_ZdlPv(ptr noundef %19) #20
  br label %_ZNSt7__cxx1112basic_stringIcSt11char_traitsIcESaIcEED2Ev.exit

_ZNSt7__cxx1112basic_stringIcSt11char_traitsIcESaIcEED2Ev.exit: ; preds = %_ZNKSt7__cxx1112basic_stringIcSt11char_traitsIcESaIcEE11_M_is_localEv.exit.i.i, %_ZNKSt7__cxx1112basic_stringIcSt11char_traitsIcESaIcEE11_M_is_localEv.exit.thread.i.i, %15
  %.pn = phi { ptr, i32 } [ %16, %15 ], [ %18, %_ZNKSt7__cxx1112basic_stringIcSt11char_traitsIcESaIcEE11_M_is_localEv.exit.thread.i.i ], [ %18, %_ZNKSt7__cxx1112basic_stringIcSt11char_traitsIcESaIcEE11_M_is_localEv.exit.i.i ]
  call void @llvm.lifetime.end.p0(i64 1, ptr nonnull %5) #21
  call void @llvm.lifetime.end.p0(i64 32, ptr nonnull %4) #21
  br label %36

25:                                               ; preds = %10
  %26 = load ptr, ptr %11, align 8, !tbaa !15
  %27 = getelementptr inbounds nuw i8, ptr %26, i64 32
  %28 = load ptr, ptr %27, align 8
  invoke void %28(ptr noundef nonnull align 8 dereferenceable(504) %11, i32 noundef %1)
          to label %29 unwind label %8

29:                                               ; preds = %25
  %30 = getelementptr inbounds nuw i8, ptr %3, i64 8
  %31 = load i32, ptr %30, align 8, !tbaa !33
  %.not.i = icmp eq i32 %31, 0
  br i1 %.not.i, label %_ZN2cv5utils5trace7details6RegionD2Ev.exit, label %32

32:                                               ; preds = %29
  invoke void @_ZN2cv5utils5trace7details6Region7destroyEv(ptr noundef nonnull align 8 dereferenceable(12) %3)
          to label %_ZN2cv5utils5trace7details6RegionD2Ev.exit unwind label %33

33:                                               ; preds = %32
  %34 = landingpad { ptr, i32 }
          catch ptr null
  %35 = extractvalue { ptr, i32 } %34, 0
  call void @__clang_call_terminate(ptr %35) #23
  unreachable

_ZN2cv5utils5trace7details6RegionD2Ev.exit:       ; preds = %29, %32
  call void @llvm.lifetime.end.p0(i64 16, ptr nonnull %3) #21
  ret void

36:                                               ; preds = %_ZNSt7__cxx1112basic_stringIcSt11char_traitsIcESaIcEED2Ev.exit, %8
  %.pn7 = phi { ptr, i32 } [ %9, %8 ], [ %.pn, %_ZNSt7__cxx1112basic_stringIcSt11char_traitsIcESaIcEED2Ev.exit ]
  call void @_ZN2cv5utils5trace7details6RegionD2Ev(ptr noundef nonnull align 8 dereferenceable(12) %3) #21
  call void @llvm.lifetime.end.p0(i64 16, ptr nonnull %3) #21
  resume { ptr, i32 } %.pn7
}